target datalayout = "e-m:e-p270:32:32-p271:32:32-p272:64:64-i64:64-i128:128-f80:128-n8:16:32:64-S128"
target triple = "x86_64-pc-linux-gnu"

%struct.ref_dir = type { i32, i32, i32, ptr, ptr }
%struct.ref_entry = type { i8, %union.anon, [0 x i8] }
%union.anon = type { %struct.ref_value }
%struct.ref_value = type { %struct.object_id, ptr }
%struct.object_id = type { [32 x i8], i32 }

@.str.3 = private unnamed_addr constant [27 x i8] c"size_t overflow: %lu * %lu\00", align 1

; Function Attrs: inlinehint nounwind uwtable
define internal i64 @st_mult(i64 noundef %0, i64 noundef %1) #2 {
  %3 = alloca i64, align 8
  %4 = alloca i64, align 8
  store i64 %0, ptr %3, align 8, !tbaa !19
  store i64 %1, ptr %4, align 8, !tbaa !19
  %5 = load i64, ptr %3, align 8, !tbaa !19
  %6 = icmp ne i64 %5, 0
  br i1 %6, label %7, label %15

7:                                                ; preds = %2
  %8 = load i64, ptr %4, align 8, !tbaa !19
  %9 = load i64, ptr %3, align 8, !tbaa !19
  %10 = udiv i64 -1, %9
  %11 = icmp ugt i64 %8, %10
  br i1 %11, label %12, label %15

12:                                               ; preds = %7
  %13 = load i64, ptr %3, align 8, !tbaa !19
  %14 = load i64, ptr %4, align 8, !tbaa !19
  call void (ptr, ...) @die(ptr noundef @.str.3, i64 noundef %13, i64 noundef %14) #9
  unreachable

15:                                               ; preds = %7, %2
  %16 = load i64, ptr %3, align 8, !tbaa !19
  %17 = load i64, ptr %4, align 8, !tbaa !19
  %18 = mul i64 %16, %17
  ret i64 %18
}

; Function Attrs: nounwind uwtable
define dso_local void @add_entry_to_dir(ptr noundef %0, ptr noundef %1) #0 {
  %3 = alloca ptr, align 8
  %4 = alloca ptr, align 8
  store ptr %0, ptr %3, align 8, !tbaa !4
  store ptr %1, ptr %4, align 8, !tbaa !9
  br label %5

5:                                                ; preds = %2
  %6 = load ptr, ptr %3, align 8, !tbaa !4
  %7 = getelementptr inbounds nuw %struct.ref_dir, ptr %6, i32 0, i32 0
  %8 = load i32, ptr %7, align 8, !tbaa !11
  %9 = add nsw i32 %8, 1
  %10 = load ptr, ptr %3, align 8, !tbaa !4
  %11 = getelementptr inbounds nuw %struct.ref_dir, ptr %10, i32 0, i32 1
  %12 = load i32, ptr %11, align 4, !tbaa !16
  %13 = icmp sgt i32 %9, %12
  br i1 %13, label %14, label %54

14:                                               ; preds = %5
  %15 = load ptr, ptr %3, align 8, !tbaa !4
  %16 = getelementptr inbounds nuw %struct.ref_dir, ptr %15, i32 0, i32 1
  %17 = load i32, ptr %16, align 4, !tbaa !16
  %18 = add nsw i32 %17, 16
  %19 = mul nsw i32 %18, 3
  %20 = sdiv i32 %19, 2
  %21 = load ptr, ptr %3, align 8, !tbaa !4
  %22 = getelementptr inbounds nuw %struct.ref_dir, ptr %21, i32 0, i32 0
  %23 = load i32, ptr %22, align 8, !tbaa !11
  %24 = add nsw i32 %23, 1
  %25 = icmp slt i32 %20, %24
  br i1 %25, label %26, label %33

26:                                               ; preds = %14
  %27 = load ptr, ptr %3, align 8, !tbaa !4
  %28 = getelementptr inbounds nuw %struct.ref_dir, ptr %27, i32 0, i32 0
  %29 = load i32, ptr %28, align 8, !tbaa !11
  %30 = add nsw i32 %29, 1
  %31 = load ptr, ptr %3, align 8, !tbaa !4
  %32 = getelementptr inbounds nuw %struct.ref_dir, ptr %31, i32 0, i32 1
  store i32 %30, ptr %32, align 4, !tbaa !16
  br label %42

33:                                               ; preds = %14
  %34 = load ptr, ptr %3, align 8, !tbaa !4
  %35 = getelementptr inbounds nuw %struct.ref_dir, ptr %34, i32 0, i32 1
  %36 = load i32, ptr %35, align 4, !tbaa !16
  %37 = add nsw i32 %36, 16
  %38 = mul nsw i32 %37, 3
  %39 = sdiv i32 %38, 2
  %40 = load ptr, ptr %3, align 8, !tbaa !4
  %41 = getelementptr inbounds nuw %struct.ref_dir, ptr %40, i32 0, i32 1
  store i32 %39, ptr %41, align 4, !tbaa !16
  br label %42

42:                                               ; preds = %33, %26
  %43 = load ptr, ptr %3, align 8, !tbaa !4
  %44 = getelementptr inbounds nuw %struct.ref_dir, ptr %43, i32 0, i32 4
  %45 = load ptr, ptr %44, align 8, !tbaa !17
  %46 = load ptr, ptr %3, align 8, !tbaa !4
  %47 = getelementptr inbounds nuw %struct.ref_dir, ptr %46, i32 0, i32 1
  %48 = load i32, ptr %47, align 4, !tbaa !16
  %49 = sext i32 %48 to i64
  %50 = call i64 @st_mult(i64 noundef 8, i64 noundef %49)
  %51 = call ptr @xrealloc(ptr noundef %45, i64 noundef %50)
  %52 = load ptr, ptr %3, align 8, !tbaa !4
  %53 = getelementptr inbounds nuw %struct.ref_dir, ptr %52, i32 0, i32 4
  store ptr %51, ptr %53, align 8, !tbaa !17
  br label %54

54:                                               ; preds = %42, %5
  br label %55

55:                                               ; preds = %54
  %56 = load ptr, ptr %4, align 8, !tbaa !9
  %57 = load ptr, ptr %3, align 8, !tbaa !4
  %58 = getelementptr inbounds nuw %struct.ref_dir, ptr %57, i32 0, i32 4
  %59 = load ptr, ptr %58, align 8, !tbaa !17
  %60 = load ptr, ptr %3, align 8, !tbaa !4
  %61 = getelementptr inbounds nuw %struct.ref_dir, ptr %60, i32 0, i32 0
  %62 = load i32, ptr %61, align 8, !tbaa !11
  %63 = add nsw i32 %62, 1
  store i32 %63, ptr %61, align 8, !tbaa !11
  %64 = sext i32 %62 to i64
  %65 = getelementptr inbounds ptr, ptr %59, i64 %64
  store ptr %56, ptr %65, align 8, !tbaa !9
  %66 = load ptr, ptr %3, align 8, !tbaa !4
  %67 = getelementptr inbounds nuw %struct.ref_dir, ptr %66, i32 0, i32 0
  %68 = load i32, ptr %67, align 8, !tbaa !11
  %69 = icmp eq i32 %68, 1
  br i1 %69, label %106, label %70

70:                                               ; preds = %55
  %71 = load ptr, ptr %3, align 8, !tbaa !4
  %72 = getelementptr inbounds nuw %struct.ref_dir, ptr %71, i32 0, i32 0
  %73 = load i32, ptr %72, align 8, !tbaa !11
  %74 = load ptr, ptr %3, align 8, !tbaa !4
  %75 = getelementptr inbounds nuw %struct.ref_dir, ptr %74, i32 0, i32 2
  %76 = load i32, ptr %75, align 8, !tbaa !18
  %77 = add nsw i32 %76, 1
  %78 = icmp eq i32 %73, %77
  br i1 %78, label %79, label %112

79:                                               ; preds = %70
  %80 = load ptr, ptr %3, align 8, !tbaa !4
  %81 = getelementptr inbounds nuw %struct.ref_dir, ptr %80, i32 0, i32 4
  %82 = load ptr, ptr %81, align 8, !tbaa !17
  %83 = load ptr, ptr %3, align 8, !tbaa !4
  %84 = getelementptr inbounds nuw %struct.ref_dir, ptr %83, i32 0, i32 0
  %85 = load i32, ptr %84, align 8, !tbaa !11
  %86 = sub nsw i32 %85, 2
  %87 = sext i32 %86 to i64
  %88 = getelementptr inbounds ptr, ptr %82, i64 %87
  %89 = load ptr, ptr %88, align 8, !tbaa !9
  %90 = getelementptr inbounds nuw %struct.ref_entry, ptr %89, i32 0, i32 2
  %91 = getelementptr inbounds [0 x i8], ptr %90, i64 0, i64 0
  %92 = load ptr, ptr %3, align 8, !tbaa !4
  %93 = getelementptr inbounds nuw %struct.ref_dir, ptr %92, i32 0, i32 4
  %94 = load ptr, ptr %93, align 8, !tbaa !17
  %95 = load ptr, ptr %3, align 8, !tbaa !4
  %96 = getelementptr inbounds nuw %struct.ref_dir, ptr %95, i32 0, i32 0
  %97 = load i32, ptr %96, align 8, !tbaa !11
  %98 = sub nsw i32 %97, 1
  %99 = sext i32 %98 to i64
  %100 = getelementptr inbounds ptr, ptr %94, i64 %99
  %101 = load ptr, ptr %100, align 8, !tbaa !9
  %102 = getelementptr inbounds nuw %struct.ref_entry, ptr %101, i32 0, i32 2
  %103 = getelementptr inbounds [0 x i8], ptr %102, i64 0, i64 0
  %104 = call i32 @strcmp(ptr noundef %91, ptr noundef %103) #8
  %105 = icmp slt i32 %104, 0
  br i1 %105, label %106, label %112

106:                                              ; preds = %79, %55
  %107 = load ptr, ptr %3, align 8, !tbaa !4
  %108 = getelementptr inbounds nuw %struct.ref_dir, ptr %107, i32 0, i32 0
  %109 = load i32, ptr %108, align 8, !tbaa !11
  %110 = load ptr, ptr %3, align 8, !tbaa !4
  %111 = getelementptr inbounds nuw %struct.ref_dir, ptr %110, i32 0, i32 2
  store i32 %109, ptr %111, align 8, !tbaa !18
  br label %112

112:                                              ; preds = %106, %79, %70
  ret void
}