; Function Attrs: nounwind uwtable
define dso_local void @add_entry_to_dir(ptr noundef captures(none) %0, ptr noundef %1) local_unnamed_addr #0 {
  %3 = load i32, ptr %0, align 8, !tbaa !4
  %4 = getelementptr inbounds nuw i8, ptr %0, i64 4
  %5 = load i32, ptr %4, align 4, !tbaa !12
  %.not = icmp slt i32 %3, %5
  br i1 %.not, label %._crit_edge, label %6

._crit_edge:                                      ; preds = %2
  %.phi.trans.insert = getelementptr inbounds nuw i8, ptr %0, i64 24
  %.pre = load ptr, ptr %.phi.trans.insert, align 8, !tbaa !13
  br label %17

6:                                                ; preds = %2
  %7 = add nsw i32 %3, 1
  %8 = mul i32 %5, 3
  %9 = add i32 %8, 48
  %10 = sdiv i32 %9, 2
  %.not26 = icmp sgt i32 %10, %3
  %. = select i1 %.not26, i32 %10, i32 %7
  store i32 %., ptr %4, align 4, !tbaa !12
  %11 = sext i32 %. to i64
  %mul.ov.i = icmp slt i32 %., 0
  br i1 %mul.ov.i, label %12, label %st_mult.exit

12:                                               ; preds = %6
  tail call void (ptr, ...) @die(ptr noundef nonnull @.str.3, i64 noundef 8, i64 noundef %11) #10
  unreachable

st_mult.exit:                                     ; preds = %6
  %13 = getelementptr inbounds nuw i8, ptr %0, i64 24
  %14 = load ptr, ptr %13, align 8, !tbaa !13
  %15 = shl nuw nsw i64 %11, 3
  %16 = tail call ptr @xrealloc(ptr noundef %14, i64 noundef %15) #11
  store ptr %16, ptr %13, align 8, !tbaa !13
  %.pr = load i32, ptr %0, align 8, !tbaa !4
  br label %17

17:                                               ; preds = %._crit_edge, %st_mult.exit
  %18 = phi ptr [ %.pre, %._crit_edge ], [ %16, %st_mult.exit ]
  %19 = phi i32 [ %3, %._crit_edge ], [ %.pr, %st_mult.exit ]
  %20 = add nsw i32 %19, 1
  store i32 %20, ptr %0, align 8, !tbaa !4
  %21 = sext i32 %19 to i64
  %22 = getelementptr inbounds ptr, ptr %18, i64 %21
  store ptr %1, ptr %22, align 8, !tbaa !14
  %23 = icmp eq i32 %19, 0
  br i1 %23, label %35, label %24

24:                                               ; preds = %17
  %25 = getelementptr inbounds nuw i8, ptr %0, i64 8
  %26 = load i32, ptr %25, align 8, !tbaa !16
  %27 = icmp eq i32 %19, %26
  br i1 %27, label %28, label %37

28:                                               ; preds = %24
  %29 = getelementptr i8, ptr %22, i64 -8
  %30 = load ptr, ptr %29, align 8, !tbaa !14
  %31 = getelementptr inbounds nuw i8, ptr %30, i64 56
  %32 = getelementptr inbounds nuw i8, ptr %1, i64 56
  %33 = tail call i32 @strcmp(ptr noundef nonnull dereferenceable(1) %31, ptr noundef nonnull dereferenceable(1) %32) #12
  %34 = icmp slt i32 %33, 0
  br i1 %34, label %35, label %37

35:                                               ; preds = %28, %17
  %36 = getelementptr inbounds nuw i8, ptr %0, i64 8
  store i32 %20, ptr %36, align 8, !tbaa !16
  br label %37

37:                                               ; preds = %35, %28, %24
  ret void
}